target datalayout = "e-m:e-p270:32:32-p271:32:32-p272:64:64-i64:64-i128:128-f80:128-n8:16:32:64-S128"
target triple = "x86_64-pc-linux-gnu"

%struct.TParser = type { ptr, i32, ptr, ptr, i8, i32, ptr, i8, i8, i8, ptr, i32, i32, i32 }

; Function Attrs: nounwind uwtable
define internal i32 @p_isstophost(ptr noundef %0) #0 {
  %2 = alloca i32, align 4
  %3 = alloca ptr, align 8
  store ptr %0, ptr %3, align 8
  %4 = load ptr, ptr %3, align 8
  %5 = getelementptr inbounds nuw %struct.TParser, ptr %4, i32 0, i32 8
  %6 = load i8, ptr %5, align 1, !range !4, !noundef !5
  %7 = trunc i8 %6 to i1
  br i1 %7, label %8, label %11

8:                                                ; preds = %1
  %9 = load ptr, ptr %3, align 8
  %10 = getelementptr inbounds nuw %struct.TParser, ptr %9, i32 0, i32 8
  store i8 0, ptr %10, align 1
  store i32 1, ptr %2, align 4
  br label %12

11:                                               ; preds = %1
  store i32 0, ptr %2, align 4
  br label %12

12:                                               ; preds = %11, %8
  %13 = load i32, ptr %2, align 4
  ret i32 %13
}