; Function Attrs: mustprogress nofree norecurse nosync nounwind willreturn memory(argmem: readwrite) uwtable
define internal range(i32 0, 2) i32 @p_isstophost(ptr noundef captures(none) %0) #12 {
  %2 = getelementptr inbounds nuw i8, ptr %0, i64 49
  %3 = load i8, ptr %2, align 1, !range !4, !noundef !5
  %4 = trunc nuw i8 %3 to i1
  br i1 %4, label %5, label %6

5:                                                ; preds = %1
  store i8 0, ptr %2, align 1
  br label %6

6:                                                ; preds = %1, %5
  %.0 = phi i32 [ 1, %5 ], [ 0, %1 ]
  ret i32 %.0
}